; Function Attrs: mustprogress uwtable
define noundef zeroext i1 @_ZNK5arrow7compute9InputType6EqualsERKS1_(ptr noundef nonnull readonly align 8 dereferenceable(40) %this, ptr noundef nonnull readonly align 8 dereferenceable(40) %other) local_unnamed_addr #0 align 2 {
entry:
  %cmp = icmp eq ptr %this, %other
  br i1 %cmp, label %return, label %if.end

if.end:                                           ; preds = %entry
  %0 = load i32, ptr %this, align 8
  %1 = load i32, ptr %other, align 8
  %cmp3.not = icmp eq i32 %0, %1
  br i1 %cmp3.not, label %if.end5, label %return

if.end5:                                          ; preds = %if.end
  switch i32 %0, label %sw.default [
    i32 0, label %return
    i32 1, label %sw.bb7
    i32 2, label %sw.bb11
  ]

sw.bb7:                                           ; preds = %if.end5
  %type_ = getelementptr inbounds i8, ptr %this, i64 8
  %2 = load ptr, ptr %type_, align 8
  %type_8 = getelementptr inbounds i8, ptr %other, i64 8
  %3 = load ptr, ptr %type_8, align 8
  %call10 = tail call noundef zeroext i1 @_ZNK5arrow8DataType6EqualsERKS0_b(ptr noundef nonnull align 8 dereferenceable(72) %2, ptr noundef nonnull align 8 dereferenceable(72) %3, i1 noundef zeroext false)
  br label %return

sw.bb11:                                          ; preds = %if.end5
  %type_matcher_ = getelementptr inbounds i8, ptr %this, i64 24
  %4 = load ptr, ptr %type_matcher_, align 8
  %type_matcher_13 = getelementptr inbounds i8, ptr %other, i64 24
  %5 = load ptr, ptr %type_matcher_13, align 8
  %vtable = load ptr, ptr %4, align 8
  %vfn = getelementptr inbounds i8, ptr %vtable, i64 32
  %6 = load ptr, ptr %vfn, align 8
  %call15 = tail call noundef zeroext i1 %6(ptr noundef nonnull align 8 dereferenceable(8) %4, ptr noundef nonnull align 8 dereferenceable(8) %5)
  br label %return

sw.default:                                       ; preds = %if.end5
  br label %return

return:                                           ; preds = %if.end5, %if.end, %entry, %sw.default, %sw.bb11, %sw.bb7
  %retval.0 = phi i1 [ false, %sw.default ], [ %call15, %sw.bb11 ], [ %call10, %sw.bb7 ], [ true, %entry ], [ false, %if.end ], [ true, %if.end5 ]
  ret i1 %retval.0
}